; Function Attrs: mustprogress uwtable
define void @cvCompleteSymm(ptr noundef %0, i32 noundef %1) local_unnamed_addr #0 personality ptr @__gxx_personality_v0 {
  %3 = alloca %"class.cv::Mat", align 8
  %4 = alloca %"class.cv::_InputOutputArray", align 8
  call void @llvm.lifetime.start.p0(i64 96, ptr nonnull %3) #13
  call void @_ZN2cv10cvarrToMatEPKvbbiPNS_10AutoBufferIdLm136EEE(ptr dead_on_unwind nonnull writable sret(%"class.cv::Mat") align 8 %3, ptr noundef %0, i1 noundef zeroext false, i1 zeroext poison, i32 noundef 0, ptr noundef null)
  call void @llvm.lifetime.start.p0(i64 24, ptr nonnull %4) #13
  %5 = getelementptr inbounds nuw i8, ptr %4, i64 8
  %6 = getelementptr inbounds nuw i8, ptr %4, i64 16
  store i64 0, ptr %6, align 8
  store i32 50397184, ptr %4, align 8, !tbaa !45
  store ptr %3, ptr %5, align 8, !tbaa !48
  %7 = icmp ne i32 %1, 0
  invoke void @_ZN2cv12completeSymmERKNS_17_InputOutputArrayEb(ptr noundef nonnull align 8 dereferenceable(24) %4, i1 noundef zeroext %7)
          to label %8 unwind label %9

8:                                                ; preds = %2
  call void @llvm.lifetime.end.p0(i64 24, ptr nonnull %4) #13
  call void @_ZN2cv3MatD1Ev(ptr noundef nonnull align 8 dereferenceable(96) %3) #13
  call void @llvm.lifetime.end.p0(i64 96, ptr nonnull %3) #13
  ret void

9:                                                ; preds = %2
  %10 = landingpad { ptr, i32 }
          cleanup
  call void @llvm.lifetime.end.p0(i64 24, ptr nonnull %4) #13
  call void @_ZN2cv3MatD1Ev(ptr noundef nonnull align 8 dereferenceable(96) %3) #13
  call void @llvm.lifetime.end.p0(i64 96, ptr nonnull %3) #13
  resume { ptr, i32 } %10
}